target datalayout = "e-m:e-p270:32:32-p271:32:32-p272:64:64-i64:64-i128:128-f80:128-n8:16:32:64-S128"
target triple = "x86_64-pc-linux-gnu"

%struct.AVComplexDouble = type { double, double }

@ff_tx_tab_53_double = global [12 x double] zeroinitializer, align 16

; Function Attrs: alwaysinline nounwind uwtable
define internal void @fft3(ptr noundef %0, ptr noundef %1, i64 noundef %2) #8 {
  %4 = alloca ptr, align 8
  %5 = alloca ptr, align 8
  %6 = alloca i64, align 8
  %7 = alloca [3 x %struct.AVComplexDouble], align 16
  %8 = alloca ptr, align 8
  store ptr %0, ptr %4, align 8, !tbaa !59
  store ptr %1, ptr %5, align 8, !tbaa !59
  store i64 %2, ptr %6, align 8, !tbaa !30
  call void @llvm.lifetime.start.p0(i64 48, ptr %7) #10
  call void @llvm.lifetime.start.p0(i64 8, ptr %8) #10
  store ptr @ff_tx_tab_53_double, ptr %8, align 8, !tbaa !38
  %9 = getelementptr inbounds [3 x %struct.AVComplexDouble], ptr %7, i64 0, i64 0
  %10 = load ptr, ptr %5, align 8, !tbaa !59
  %11 = getelementptr inbounds %struct.AVComplexDouble, ptr %10, i64 0
  call void @llvm.memcpy.p0.p0.i64(ptr align 16 %9, ptr align 8 %11, i64 16, i1 false), !tbaa.struct !35
  br label %12

12:                                               ; preds = %3
  %13 = load ptr, ptr %5, align 8, !tbaa !59
  %14 = getelementptr inbounds %struct.AVComplexDouble, ptr %13, i64 1
  %15 = getelementptr inbounds nuw %struct.AVComplexDouble, ptr %14, i32 0, i32 1
  %16 = load double, ptr %15, align 8, !tbaa !34
  %17 = load ptr, ptr %5, align 8, !tbaa !59
  %18 = getelementptr inbounds %struct.AVComplexDouble, ptr %17, i64 2
  %19 = getelementptr inbounds nuw %struct.AVComplexDouble, ptr %18, i32 0, i32 1
  %20 = load double, ptr %19, align 8, !tbaa !34
  %21 = fsub nsz double %16, %20
  %22 = getelementptr inbounds [3 x %struct.AVComplexDouble], ptr %7, i64 0, i64 1
  %23 = getelementptr inbounds nuw %struct.AVComplexDouble, ptr %22, i32 0, i32 0
  store double %21, ptr %23, align 16, !tbaa !32
  %24 = load ptr, ptr %5, align 8, !tbaa !59
  %25 = getelementptr inbounds %struct.AVComplexDouble, ptr %24, i64 1
  %26 = getelementptr inbounds nuw %struct.AVComplexDouble, ptr %25, i32 0, i32 1
  %27 = load double, ptr %26, align 8, !tbaa !34
  %28 = load ptr, ptr %5, align 8, !tbaa !59
  %29 = getelementptr inbounds %struct.AVComplexDouble, ptr %28, i64 2
  %30 = getelementptr inbounds nuw %struct.AVComplexDouble, ptr %29, i32 0, i32 1
  %31 = load double, ptr %30, align 8, !tbaa !34
  %32 = fadd nsz double %27, %31
  %33 = getelementptr inbounds [3 x %struct.AVComplexDouble], ptr %7, i64 0, i64 2
  %34 = getelementptr inbounds nuw %struct.AVComplexDouble, ptr %33, i32 0, i32 1
  store double %32, ptr %34, align 8, !tbaa !34
  br label %35

35:                                               ; preds = %12
  br label %36

36:                                               ; preds = %35
  br label %37

37:                                               ; preds = %36
  %38 = load ptr, ptr %5, align 8, !tbaa !59
  %39 = getelementptr inbounds %struct.AVComplexDouble, ptr %38, i64 1
  %40 = getelementptr inbounds nuw %struct.AVComplexDouble, ptr %39, i32 0, i32 0
  %41 = load double, ptr %40, align 8, !tbaa !32
  %42 = load ptr, ptr %5, align 8, !tbaa !59
  %43 = getelementptr inbounds %struct.AVComplexDouble, ptr %42, i64 2
  %44 = getelementptr inbounds nuw %struct.AVComplexDouble, ptr %43, i32 0, i32 0
  %45 = load double, ptr %44, align 8, !tbaa !32
  %46 = fsub nsz double %41, %45
  %47 = getelementptr inbounds [3 x %struct.AVComplexDouble], ptr %7, i64 0, i64 1
  %48 = getelementptr inbounds nuw %struct.AVComplexDouble, ptr %47, i32 0, i32 1
  store double %46, ptr %48, align 8, !tbaa !34
  %49 = load ptr, ptr %5, align 8, !tbaa !59
  %50 = getelementptr inbounds %struct.AVComplexDouble, ptr %49, i64 1
  %51 = getelementptr inbounds nuw %struct.AVComplexDouble, ptr %50, i32 0, i32 0
  %52 = load double, ptr %51, align 8, !tbaa !32
  %53 = load ptr, ptr %5, align 8, !tbaa !59
  %54 = getelementptr inbounds %struct.AVComplexDouble, ptr %53, i64 2
  %55 = getelementptr inbounds nuw %struct.AVComplexDouble, ptr %54, i32 0, i32 0
  %56 = load double, ptr %55, align 8, !tbaa !32
  %57 = fadd nsz double %52, %56
  %58 = getelementptr inbounds [3 x %struct.AVComplexDouble], ptr %7, i64 0, i64 2
  %59 = getelementptr inbounds nuw %struct.AVComplexDouble, ptr %58, i32 0, i32 0
  store double %57, ptr %59, align 16, !tbaa !32
  br label %60

60:                                               ; preds = %37
  br label %61

61:                                               ; preds = %60
  %62 = getelementptr inbounds [3 x %struct.AVComplexDouble], ptr %7, i64 0, i64 0
  %63 = getelementptr inbounds nuw %struct.AVComplexDouble, ptr %62, i32 0, i32 0
  %64 = load double, ptr %63, align 16, !tbaa !32
  %65 = getelementptr inbounds [3 x %struct.AVComplexDouble], ptr %7, i64 0, i64 2
  %66 = getelementptr inbounds nuw %struct.AVComplexDouble, ptr %65, i32 0, i32 0
  %67 = load double, ptr %66, align 16, !tbaa !32
  %68 = fadd nsz double %64, %67
  %69 = load ptr, ptr %4, align 8, !tbaa !59
  %70 = load i64, ptr %6, align 8, !tbaa !30
  %71 = mul nsw i64 0, %70
  %72 = getelementptr inbounds %struct.AVComplexDouble, ptr %69, i64 %71
  %73 = getelementptr inbounds nuw %struct.AVComplexDouble, ptr %72, i32 0, i32 0
  store double %68, ptr %73, align 8, !tbaa !32
  %74 = getelementptr inbounds [3 x %struct.AVComplexDouble], ptr %7, i64 0, i64 0
  %75 = getelementptr inbounds nuw %struct.AVComplexDouble, ptr %74, i32 0, i32 1
  %76 = load double, ptr %75, align 8, !tbaa !34
  %77 = getelementptr inbounds [3 x %struct.AVComplexDouble], ptr %7, i64 0, i64 2
  %78 = getelementptr inbounds nuw %struct.AVComplexDouble, ptr %77, i32 0, i32 1
  %79 = load double, ptr %78, align 8, !tbaa !34
  %80 = fadd nsz double %76, %79
  %81 = load ptr, ptr %4, align 8, !tbaa !59
  %82 = load i64, ptr %6, align 8, !tbaa !30
  %83 = mul nsw i64 0, %82
  %84 = getelementptr inbounds %struct.AVComplexDouble, ptr %81, i64 %83
  %85 = getelementptr inbounds nuw %struct.AVComplexDouble, ptr %84, i32 0, i32 1
  store double %80, ptr %85, align 8, !tbaa !34
  %86 = load ptr, ptr %8, align 8, !tbaa !38
  %87 = getelementptr inbounds double, ptr %86, i64 8
  %88 = load double, ptr %87, align 8, !tbaa !29
  %89 = getelementptr inbounds [3 x %struct.AVComplexDouble], ptr %7, i64 0, i64 1
  %90 = getelementptr inbounds nuw %struct.AVComplexDouble, ptr %89, i32 0, i32 0
  %91 = load double, ptr %90, align 16, !tbaa !32
  %92 = fmul nsz double %88, %91
  %93 = getelementptr inbounds [3 x %struct.AVComplexDouble], ptr %7, i64 0, i64 1
  %94 = getelementptr inbounds nuw %struct.AVComplexDouble, ptr %93, i32 0, i32 0
  store double %92, ptr %94, align 16, !tbaa !32
  %95 = load ptr, ptr %8, align 8, !tbaa !38
  %96 = getelementptr inbounds double, ptr %95, i64 9
  %97 = load double, ptr %96, align 8, !tbaa !29
  %98 = getelementptr inbounds [3 x %struct.AVComplexDouble], ptr %7, i64 0, i64 1
  %99 = getelementptr inbounds nuw %struct.AVComplexDouble, ptr %98, i32 0, i32 1
  %100 = load double, ptr %99, align 8, !tbaa !34
  %101 = fmul nsz double %97, %100
  %102 = getelementptr inbounds [3 x %struct.AVComplexDouble], ptr %7, i64 0, i64 1
  %103 = getelementptr inbounds nuw %struct.AVComplexDouble, ptr %102, i32 0, i32 1
  store double %101, ptr %103, align 8, !tbaa !34
  %104 = load ptr, ptr %8, align 8, !tbaa !38
  %105 = getelementptr inbounds double, ptr %104, i64 10
  %106 = load double, ptr %105, align 8, !tbaa !29
  %107 = getelementptr inbounds [3 x %struct.AVComplexDouble], ptr %7, i64 0, i64 2
  %108 = getelementptr inbounds nuw %struct.AVComplexDouble, ptr %107, i32 0, i32 0
  %109 = load double, ptr %108, align 16, !tbaa !32
  %110 = fmul nsz double %106, %109
  %111 = getelementptr inbounds [3 x %struct.AVComplexDouble], ptr %7, i64 0, i64 2
  %112 = getelementptr inbounds nuw %struct.AVComplexDouble, ptr %111, i32 0, i32 0
  store double %110, ptr %112, align 16, !tbaa !32
  %113 = load ptr, ptr %8, align 8, !tbaa !38
  %114 = getelementptr inbounds double, ptr %113, i64 10
  %115 = load double, ptr %114, align 8, !tbaa !29
  %116 = getelementptr inbounds [3 x %struct.AVComplexDouble], ptr %7, i64 0, i64 2
  %117 = getelementptr inbounds nuw %struct.AVComplexDouble, ptr %116, i32 0, i32 1
  %118 = load double, ptr %117, align 8, !tbaa !34
  %119 = fmul nsz double %115, %118
  %120 = getelementptr inbounds [3 x %struct.AVComplexDouble], ptr %7, i64 0, i64 2
  %121 = getelementptr inbounds nuw %struct.AVComplexDouble, ptr %120, i32 0, i32 1
  store double %119, ptr %121, align 8, !tbaa !34
  %122 = getelementptr inbounds [3 x %struct.AVComplexDouble], ptr %7, i64 0, i64 0
  %123 = getelementptr inbounds nuw %struct.AVComplexDouble, ptr %122, i32 0, i32 0
  %124 = load double, ptr %123, align 16, !tbaa !32
  %125 = getelementptr inbounds [3 x %struct.AVComplexDouble], ptr %7, i64 0, i64 2
  %126 = getelementptr inbounds nuw %struct.AVComplexDouble, ptr %125, i32 0, i32 0
  %127 = load double, ptr %126, align 16, !tbaa !32
  %128 = fsub nsz double %124, %127
  %129 = getelementptr inbounds [3 x %struct.AVComplexDouble], ptr %7, i64 0, i64 1
  %130 = getelementptr inbounds nuw %struct.AVComplexDouble, ptr %129, i32 0, i32 0
  %131 = load double, ptr %130, align 16, !tbaa !32
  %132 = fadd nsz double %128, %131
  %133 = load ptr, ptr %4, align 8, !tbaa !59
  %134 = load i64, ptr %6, align 8, !tbaa !30
  %135 = mul nsw i64 1, %134
  %136 = getelementptr inbounds %struct.AVComplexDouble, ptr %133, i64 %135
  %137 = getelementptr inbounds nuw %struct.AVComplexDouble, ptr %136, i32 0, i32 0
  store double %132, ptr %137, align 8, !tbaa !32
  %138 = getelementptr inbounds [3 x %struct.AVComplexDouble], ptr %7, i64 0, i64 0
  %139 = getelementptr inbounds nuw %struct.AVComplexDouble, ptr %138, i32 0, i32 1
  %140 = load double, ptr %139, align 8, !tbaa !34
  %141 = getelementptr inbounds [3 x %struct.AVComplexDouble], ptr %7, i64 0, i64 2
  %142 = getelementptr inbounds nuw %struct.AVComplexDouble, ptr %141, i32 0, i32 1
  %143 = load double, ptr %142, align 8, !tbaa !34
  %144 = fsub nsz double %140, %143
  %145 = getelementptr inbounds [3 x %struct.AVComplexDouble], ptr %7, i64 0, i64 1
  %146 = getelementptr inbounds nuw %struct.AVComplexDouble, ptr %145, i32 0, i32 1
  %147 = load double, ptr %146, align 8, !tbaa !34
  %148 = fsub nsz double %144, %147
  %149 = load ptr, ptr %4, align 8, !tbaa !59
  %150 = load i64, ptr %6, align 8, !tbaa !30
  %151 = mul nsw i64 1, %150
  %152 = getelementptr inbounds %struct.AVComplexDouble, ptr %149, i64 %151
  %153 = getelementptr inbounds nuw %struct.AVComplexDouble, ptr %152, i32 0, i32 1
  store double %148, ptr %153, align 8, !tbaa !34
  %154 = getelementptr inbounds [3 x %struct.AVComplexDouble], ptr %7, i64 0, i64 0
  %155 = getelementptr inbounds nuw %struct.AVComplexDouble, ptr %154, i32 0, i32 0
  %156 = load double, ptr %155, align 16, !tbaa !32
  %157 = getelementptr inbounds [3 x %struct.AVComplexDouble], ptr %7, i64 0, i64 2
  %158 = getelementptr inbounds nuw %struct.AVComplexDouble, ptr %157, i32 0, i32 0
  %159 = load double, ptr %158, align 16, !tbaa !32
  %160 = fsub nsz double %156, %159
  %161 = getelementptr inbounds [3 x %struct.AVComplexDouble], ptr %7, i64 0, i64 1
  %162 = getelementptr inbounds nuw %struct.AVComplexDouble, ptr %161, i32 0, i32 0
  %163 = load double, ptr %162, align 16, !tbaa !32
  %164 = fsub nsz double %160, %163
  %165 = load ptr, ptr %4, align 8, !tbaa !59
  %166 = load i64, ptr %6, align 8, !tbaa !30
  %167 = mul nsw i64 2, %166
  %168 = getelementptr inbounds %struct.AVComplexDouble, ptr %165, i64 %167
  %169 = getelementptr inbounds nuw %struct.AVComplexDouble, ptr %168, i32 0, i32 0
  store double %164, ptr %169, align 8, !tbaa !32
  %170 = getelementptr inbounds [3 x %struct.AVComplexDouble], ptr %7, i64 0, i64 0
  %171 = getelementptr inbounds nuw %struct.AVComplexDouble, ptr %170, i32 0, i32 1
  %172 = load double, ptr %171, align 8, !tbaa !34
  %173 = getelementptr inbounds [3 x %struct.AVComplexDouble], ptr %7, i64 0, i64 2
  %174 = getelementptr inbounds nuw %struct.AVComplexDouble, ptr %173, i32 0, i32 1
  %175 = load double, ptr %174, align 8, !tbaa !34
  %176 = fsub nsz double %172, %175
  %177 = getelementptr inbounds [3 x %struct.AVComplexDouble], ptr %7, i64 0, i64 1
  %178 = getelementptr inbounds nuw %struct.AVComplexDouble, ptr %177, i32 0, i32 1
  %179 = load double, ptr %178, align 8, !tbaa !34
  %180 = fadd nsz double %176, %179
  %181 = load ptr, ptr %4, align 8, !tbaa !59
  %182 = load i64, ptr %6, align 8, !tbaa !30
  %183 = mul nsw i64 2, %182
  %184 = getelementptr inbounds %struct.AVComplexDouble, ptr %181, i64 %183
  %185 = getelementptr inbounds nuw %struct.AVComplexDouble, ptr %184, i32 0, i32 1
  store double %180, ptr %185, align 8, !tbaa !34
  call void @llvm.lifetime.end.p0(i64 8, ptr %8) #10
  call void @llvm.lifetime.end.p0(i64 48, ptr %7) #10
  ret void
}

; Function Attrs: nounwind uwtable
define internal void @ff_tx_fft3_double_c(ptr noundef %0, ptr noundef %1, ptr noundef %2, i64 noundef %3) #4 {
  %5 = alloca ptr, align 8
  %6 = alloca ptr, align 8
  %7 = alloca ptr, align 8
  %8 = alloca i64, align 8
  store ptr %0, ptr %5, align 8, !tbaa !17
  store ptr %1, ptr %6, align 8, !tbaa !8
  store ptr %2, ptr %7, align 8, !tbaa !8
  store i64 %3, ptr %8, align 8, !tbaa !30
  %9 = load ptr, ptr %6, align 8, !tbaa !8
  %10 = load ptr, ptr %7, align 8, !tbaa !8
  %11 = load i64, ptr %8, align 8, !tbaa !30
  %12 = udiv i64 %11, 16
  call void @fft3(ptr noundef %9, ptr noundef %10, i64 noundef %12)
  ret void
}