; Function Attrs: mustprogress nofree norecurse nosync nounwind willreturn memory(read, argmem: readwrite, inaccessiblemem: none) uwtable
define internal void @ff_tx_fft3_double_c(ptr readnone captures(none) %0, ptr noundef writeonly captures(none) initializes((0, 16)) %1, ptr noundef readonly captures(none) %2, i64 noundef %3) #9 {
  %5 = lshr i64 %3, 4
  %.sroa.0.0.copyload.i = load double, ptr %2, align 8, !tbaa !27
  %.sroa.6.0..sroa_idx.i = getelementptr inbounds nuw i8, ptr %2, i64 8
  %.sroa.6.0.copyload.i = load double, ptr %.sroa.6.0..sroa_idx.i, align 8, !tbaa !27
  %6 = getelementptr inbounds nuw i8, ptr %2, i64 16
  %7 = getelementptr inbounds nuw i8, ptr %2, i64 24
  %8 = load double, ptr %7, align 8, !tbaa !52
  %9 = getelementptr inbounds nuw i8, ptr %2, i64 32
  %10 = getelementptr inbounds nuw i8, ptr %2, i64 40
  %11 = load double, ptr %10, align 8, !tbaa !52
  %12 = fsub nsz double %8, %11
  %13 = fadd nsz double %8, %11
  %14 = load double, ptr %6, align 8, !tbaa !50
  %15 = load double, ptr %9, align 8, !tbaa !50
  %16 = fsub nsz double %14, %15
  %17 = fadd nsz double %14, %15
  %18 = fadd nsz double %.sroa.0.0.copyload.i, %17
  store double %18, ptr %1, align 8, !tbaa !50
  %19 = fadd nsz double %.sroa.6.0.copyload.i, %13
  %20 = getelementptr inbounds nuw i8, ptr %1, i64 8
  store double %19, ptr %20, align 8, !tbaa !52
  %21 = load double, ptr getelementptr inbounds nuw (i8, ptr @ff_tx_tab_53_double, i64 64), align 16, !tbaa !27
  %22 = fmul nsz double %12, %21
  %23 = load double, ptr getelementptr inbounds nuw (i8, ptr @ff_tx_tab_53_double, i64 72), align 8, !tbaa !27
  %24 = fmul nsz double %16, %23
  %25 = load double, ptr getelementptr inbounds nuw (i8, ptr @ff_tx_tab_53_double, i64 80), align 16, !tbaa !27
  %26 = fmul nsz double %17, %25
  %27 = fmul nsz double %13, %25
  %28 = fsub nsz double %.sroa.0.0.copyload.i, %26
  %29 = fadd nsz double %22, %28
  %30 = getelementptr inbounds nuw %struct.AVComplexDouble, ptr %1, i64 %5
  store double %29, ptr %30, align 8, !tbaa !50
  %31 = fsub nsz double %.sroa.6.0.copyload.i, %27
  %32 = fsub nsz double %31, %24
  %33 = getelementptr inbounds nuw i8, ptr %30, i64 8
  store double %32, ptr %33, align 8, !tbaa !52
  %34 = fsub nsz double %28, %22
  %.idx.i = shl nsw i64 %5, 5
  %35 = getelementptr inbounds nuw i8, ptr %1, i64 %.idx.i
  store double %34, ptr %35, align 8, !tbaa !50
  %36 = fadd nsz double %24, %31
  %37 = getelementptr inbounds nuw i8, ptr %35, i64 8
  store double %36, ptr %37, align 8, !tbaa !52
  ret void
}